target datalayout = "e-m:e-p270:32:32-p271:32:32-p272:64:64-i64:64-i128:128-f80:128-n8:16:32:64-S128"
target triple = "x86_64-unknown-linux-gnu"

%struct.BDRVQEDState = type { ptr, %struct.QEDHeader, %struct.CoMutex, ptr, %struct.L2TableCache, i32, i32, i32, i32, i64, ptr, %struct.CoQueue, i8, ptr }
%struct.QEDHeader = type { i32, i32, i32, i32, i64, i64, i64, i64, i64, i32, i32 }
%struct.CoMutex = type { i32, ptr, %struct.anon, %struct.anon, i32, i32, ptr }
%struct.anon = type { ptr }
%struct.L2TableCache = type { %union.anon, i32 }
%union.anon = type { %struct.QTailQLink }
%struct.QTailQLink = type { ptr, ptr }
%struct.CoQueue = type { %struct.anon.0 }
%struct.anon.0 = type { ptr, ptr }
%struct.BlockDriverState = type { i32, i8, i8, i8, i8, i8, ptr, ptr, ptr, %struct.anon.1, i8, [4096 x i8], [4096 x i8], [4096 x i8], [16 x i8], ptr, [4096 x i8], %struct.BlockLimits, i32, i32, i32, i32, [32 x i8], %union.anon.2, %union.anon.3, %union.anon.4, i32, [16 x %struct.anon.5], ptr, %struct.anon.6, ptr, ptr, %struct.anon.7, ptr, ptr, i32, ptr, i64, i64, %struct.QemuMutex, %struct.anon.8, %struct.Stat64, i32, i32, i32, i32, i32, i32, %struct.QemuMutex, %struct.anon.9, %struct.CoQueue, i8, i32, i8, %struct.CoMutex, ptr, ptr }
%struct.anon.1 = type { ptr }
%struct.BlockLimits = type { i32, i64, i32, i64, i32, i32, i32, i64, i32, i64, i64, i32, i8, i32, i32, i32, i32, i32, i32, i32 }
%union.anon.2 = type { %struct.QTailQLink }
%union.anon.3 = type { %struct.QTailQLink }
%union.anon.4 = type { %struct.QTailQLink }
%struct.anon.5 = type { ptr }
%struct.anon.6 = type { ptr }
%struct.anon.7 = type { ptr }
%struct.anon.8 = type { ptr }
%struct.Stat64 = type { i64 }
%struct.QemuMutex = type { %union.pthread_mutex_t, i8 }
%union.pthread_mutex_t = type { %struct.__pthread_mutex_s }
%struct.__pthread_mutex_s = type { i32, i32, i32, i32, i32, i16, i16, %struct.__pthread_internal_list }
%struct.__pthread_internal_list = type { ptr, ptr }
%struct.anon.9 = type { ptr }
%struct.BdrvChild = type { ptr, ptr, ptr, i32, ptr, i64, i64, i8, i8, %struct.anon.10, %struct.anon.11 }
%struct.anon.10 = type { ptr, ptr }
%struct.anon.11 = type { ptr, ptr }
%struct.QEDRequest = type { ptr }
%struct.CachedL2Table = type { ptr, i64, %union.anon.12, i32 }
%union.anon.12 = type { %struct.QTailQLink }

@.str = private unnamed_addr constant [26 x i8] c"request->l2_table != NULL\00", align 1
@.str.1 = private unnamed_addr constant [26 x i8] c"../qemu/block/qed-table.c\00", align 1
@__PRETTY_FUNCTION__.qed_read_l2_table = private unnamed_addr constant [62 x i8] c"int qed_read_l2_table(BDRVQEDState *, QEDRequest *, uint64_t)\00", align 1

; Function Attrs: nounwind sspstrong uwtable
define dso_local i32 @qed_read_l2_table(ptr noundef %s, ptr noundef %request, i64 noundef %offset) #0 {
entry:
  %retval = alloca i32, align 4
  %s.addr = alloca ptr, align 8
  %request.addr = alloca ptr, align 8
  %offset.addr = alloca i64, align 8
  %ret = alloca i32, align 4
  store ptr %s, ptr %s.addr, align 8
  store ptr %request, ptr %request.addr, align 8
  store i64 %offset, ptr %offset.addr, align 8
  %0 = load ptr, ptr %request.addr, align 8
  %l2_table = getelementptr inbounds %struct.QEDRequest, ptr %0, i32 0, i32 0
  %1 = load ptr, ptr %l2_table, align 8
  call void @qed_unref_l2_cache_entry(ptr noundef %1)
  %2 = load ptr, ptr %s.addr, align 8
  %l2_cache = getelementptr inbounds %struct.BDRVQEDState, ptr %2, i32 0, i32 4
  %3 = load i64, ptr %offset.addr, align 8
  %call = call ptr @qed_find_l2_cache_entry(ptr noundef %l2_cache, i64 noundef %3)
  %4 = load ptr, ptr %request.addr, align 8
  %l2_table1 = getelementptr inbounds %struct.QEDRequest, ptr %4, i32 0, i32 0
  store ptr %call, ptr %l2_table1, align 8
  %5 = load ptr, ptr %request.addr, align 8
  %l2_table2 = getelementptr inbounds %struct.QEDRequest, ptr %5, i32 0, i32 0
  %6 = load ptr, ptr %l2_table2, align 8
  %tobool = icmp ne ptr %6, null
  br i1 %tobool, label %if.then, label %if.end

if.then:                                          ; preds = %entry
  store i32 0, ptr %retval, align 4
  br label %return

if.end:                                           ; preds = %entry
  %7 = load ptr, ptr %s.addr, align 8
  %l2_cache3 = getelementptr inbounds %struct.BDRVQEDState, ptr %7, i32 0, i32 4
  %call4 = call ptr @qed_alloc_l2_cache_entry(ptr noundef %l2_cache3)
  %8 = load ptr, ptr %request.addr, align 8
  %l2_table5 = getelementptr inbounds %struct.QEDRequest, ptr %8, i32 0, i32 0
  store ptr %call4, ptr %l2_table5, align 8
  %9 = load ptr, ptr %s.addr, align 8
  %call6 = call ptr @qed_alloc_table(ptr noundef %9)
  %10 = load ptr, ptr %request.addr, align 8
  %l2_table7 = getelementptr inbounds %struct.QEDRequest, ptr %10, i32 0, i32 0
  %11 = load ptr, ptr %l2_table7, align 8
  %table = getelementptr inbounds %struct.CachedL2Table, ptr %11, i32 0, i32 0
  store ptr %call6, ptr %table, align 8
  br label %do.body

do.body:                                          ; preds = %if.end
  %12 = load ptr, ptr %s.addr, align 8
  %bs = getelementptr inbounds %struct.BDRVQEDState, ptr %12, i32 0, i32 0
  %13 = load ptr, ptr %bs, align 8
  %file = getelementptr inbounds %struct.BlockDriverState, ptr %13, i32 0, i32 31
  %14 = load ptr, ptr %file, align 8
  %tobool8 = icmp ne ptr %14, null
  br i1 %tobool8, label %if.then9, label %if.end13

if.then9:                                         ; preds = %do.body
  %15 = load ptr, ptr %s.addr, align 8
  %bs10 = getelementptr inbounds %struct.BDRVQEDState, ptr %15, i32 0, i32 0
  %16 = load ptr, ptr %bs10, align 8
  %file11 = getelementptr inbounds %struct.BlockDriverState, ptr %16, i32 0, i32 31
  %17 = load ptr, ptr %file11, align 8
  %bs12 = getelementptr inbounds %struct.BdrvChild, ptr %17, i32 0, i32 0
  %18 = load ptr, ptr %bs12, align 8
  call void @bdrv_co_debug_event(ptr noundef %18, i32 noundef 4)
  br label %if.end13

if.end13:                                         ; preds = %if.then9, %do.body
  br label %do.end

do.end:                                           ; preds = %if.end13
  %19 = load ptr, ptr %s.addr, align 8
  %20 = load i64, ptr %offset.addr, align 8
  %21 = load ptr, ptr %request.addr, align 8
  %l2_table14 = getelementptr inbounds %struct.QEDRequest, ptr %21, i32 0, i32 0
  %22 = load ptr, ptr %l2_table14, align 8
  %table15 = getelementptr inbounds %struct.CachedL2Table, ptr %22, i32 0, i32 0
  %23 = load ptr, ptr %table15, align 8
  %call16 = call i32 @qed_read_table(ptr noundef %19, i64 noundef %20, ptr noundef %23)
  store i32 %call16, ptr %ret, align 4
  %24 = load i32, ptr %ret, align 4
  %tobool17 = icmp ne i32 %24, 0
  br i1 %tobool17, label %if.then18, label %if.else

if.then18:                                        ; preds = %do.end
  %25 = load ptr, ptr %request.addr, align 8
  %l2_table19 = getelementptr inbounds %struct.QEDRequest, ptr %25, i32 0, i32 0
  %26 = load ptr, ptr %l2_table19, align 8
  call void @qed_unref_l2_cache_entry(ptr noundef %26)
  %27 = load ptr, ptr %request.addr, align 8
  %l2_table20 = getelementptr inbounds %struct.QEDRequest, ptr %27, i32 0, i32 0
  store ptr null, ptr %l2_table20, align 8
  br label %if.end32

if.else:                                          ; preds = %do.end
  %28 = load i64, ptr %offset.addr, align 8
  %29 = load ptr, ptr %request.addr, align 8
  %l2_table21 = getelementptr inbounds %struct.QEDRequest, ptr %29, i32 0, i32 0
  %30 = load ptr, ptr %l2_table21, align 8
  %offset22 = getelementptr inbounds %struct.CachedL2Table, ptr %30, i32 0, i32 1
  store i64 %28, ptr %offset22, align 8
  %31 = load ptr, ptr %s.addr, align 8
  %l2_cache23 = getelementptr inbounds %struct.BDRVQEDState, ptr %31, i32 0, i32 4
  %32 = load ptr, ptr %request.addr, align 8
  %l2_table24 = getelementptr inbounds %struct.QEDRequest, ptr %32, i32 0, i32 0
  %33 = load ptr, ptr %l2_table24, align 8
  call void @qed_commit_l2_cache_entry(ptr noundef %l2_cache23, ptr noundef %33)
  %34 = load ptr, ptr %s.addr, align 8
  %l2_cache25 = getelementptr inbounds %struct.BDRVQEDState, ptr %34, i32 0, i32 4
  %35 = load i64, ptr %offset.addr, align 8
  %call26 = call ptr @qed_find_l2_cache_entry(ptr noundef %l2_cache25, i64 noundef %35)
  %36 = load ptr, ptr %request.addr, align 8
  %l2_table27 = getelementptr inbounds %struct.QEDRequest, ptr %36, i32 0, i32 0
  store ptr %call26, ptr %l2_table27, align 8
  %37 = load ptr, ptr %request.addr, align 8
  %l2_table28 = getelementptr inbounds %struct.QEDRequest, ptr %37, i32 0, i32 0
  %38 = load ptr, ptr %l2_table28, align 8
  %cmp = icmp ne ptr %38, null
  br i1 %cmp, label %if.then29, label %if.else30

if.then29:                                        ; preds = %if.else
  br label %if.end31

if.else30:                                        ; preds = %if.else
  call void @__assert_fail(ptr noundef @.str, ptr noundef @.str.1, i32 noundef 169, ptr noundef @__PRETTY_FUNCTION__.qed_read_l2_table) #4
  unreachable

if.end31:                                         ; preds = %if.then29
  br label %if.end32

if.end32:                                         ; preds = %if.end31, %if.then18
  %39 = load i32, ptr %ret, align 4
  store i32 %39, ptr %retval, align 4
  br label %return

return:                                           ; preds = %if.end32, %if.then
  %40 = load i32, ptr %retval, align 4
  ret i32 %40
}