; Function Attrs: nounwind sspstrong uwtable
define dso_local range(i32 -2147483648, 1) i32 @qed_read_l2_table(ptr noundef %s, ptr noundef captures(none) %request, i64 noundef %offset) #0 {
entry:
  %0 = load ptr, ptr %request, align 8
  tail call void @qed_unref_l2_cache_entry(ptr noundef %0) #6
  %l2_cache = getelementptr inbounds nuw i8, ptr %s, i64 128
  %call = tail call ptr @qed_find_l2_cache_entry(ptr noundef nonnull %l2_cache, i64 noundef %offset) #6
  store ptr %call, ptr %request, align 8
  %tobool.not = icmp eq ptr %call, null
  br i1 %tobool.not, label %if.end, label %return

if.end:                                           ; preds = %entry
  %call4 = tail call ptr @qed_alloc_l2_cache_entry(ptr noundef nonnull %l2_cache) #6
  store ptr %call4, ptr %request, align 8
  %call6 = tail call ptr @qed_alloc_table(ptr noundef nonnull %s) #6
  %1 = load ptr, ptr %request, align 8
  store ptr %call6, ptr %1, align 8
  %2 = load ptr, ptr %s, align 8
  %file = getelementptr inbounds nuw i8, ptr %2, i64 16840
  %3 = load ptr, ptr %file, align 8
  %tobool8.not = icmp eq ptr %3, null
  br i1 %tobool8.not, label %do.end, label %if.then9

if.then9:                                         ; preds = %if.end
  %4 = load ptr, ptr %3, align 8
  tail call void @bdrv_co_debug_event(ptr noundef %4, i32 noundef 4) #6
  br label %do.end

do.end:                                           ; preds = %if.end, %if.then9
  %5 = load ptr, ptr %request, align 8
  %6 = load ptr, ptr %5, align 8
  %call16 = tail call i32 @qed_read_table(ptr noundef nonnull %s, i64 noundef %offset, ptr noundef %6)
  %tobool17.not = icmp eq i32 %call16, 0
  %7 = load ptr, ptr %request, align 8
  br i1 %tobool17.not, label %if.else, label %if.then18

if.then18:                                        ; preds = %do.end
  tail call void @qed_unref_l2_cache_entry(ptr noundef %7) #6
  store ptr null, ptr %request, align 8
  br label %return

if.else:                                          ; preds = %do.end
  %offset22 = getelementptr inbounds nuw i8, ptr %7, i64 8
  store i64 %offset, ptr %offset22, align 8
  %8 = load ptr, ptr %request, align 8
  tail call void @qed_commit_l2_cache_entry(ptr noundef nonnull %l2_cache, ptr noundef %8) #6
  %call26 = tail call ptr @qed_find_l2_cache_entry(ptr noundef nonnull %l2_cache, i64 noundef %offset) #6
  store ptr %call26, ptr %request, align 8
  %cmp.not = icmp eq ptr %call26, null
  br i1 %cmp.not, label %if.else30, label %return

if.else30:                                        ; preds = %if.else
  tail call void @__assert_fail(ptr noundef nonnull @.str, ptr noundef nonnull @.str.1, i32 noundef 169, ptr noundef nonnull @__PRETTY_FUNCTION__.qed_read_l2_table) #7
  unreachable

return:                                           ; preds = %if.then18, %if.else, %entry
  %retval.0 = phi i32 [ 0, %entry ], [ 0, %if.else ], [ %call16, %if.then18 ]
  ret i32 %retval.0
}